; Function Attrs: mustprogress nounwind uwtable
define dso_local void @_ZNK4node10MapKVStore3GetB5cxx11EPKc(ptr noalias sret(%"class.v8::Maybe") align 8 %agg.result, ptr noundef nonnull align 8 dereferenceable(104) %this, ptr noundef %key) unnamed_addr #3 align 2 {
entry:
  %ref.tmp = alloca %"class.std::__cxx11::basic_string", align 8
  %ref.tmp2 = alloca %"class.std::allocator", align 1
  %mutex_ = getelementptr inbounds i8, ptr %this, i64 8
  tail call void @uv_mutex_lock(ptr noundef nonnull %mutex_) #20
  call void @_ZNSaIcEC1Ev(ptr noundef nonnull align 1 dereferenceable(1) %ref.tmp2) #20
  %call.i = call noundef ptr @_ZNSt7__cxx1112basic_stringIcSt11char_traitsIcESaIcEE13_M_local_dataEv(ptr noundef nonnull align 8 dereferenceable(32) %ref.tmp) #20
  call void @_ZNSt7__cxx1112basic_stringIcSt11char_traitsIcESaIcEE12_Alloc_hiderC1EPcRKS3_(ptr noundef nonnull align 8 dereferenceable(8) %ref.tmp, ptr noundef %call.i, ptr noundef nonnull align 1 dereferenceable(1) %ref.tmp2) #20
  %cmp.i = icmp eq ptr %key, null
  br i1 %cmp.i, label %if.then.i, label %_ZNSt7__cxx1112basic_stringIcSt11char_traitsIcESaIcEEC2IS3_EEPKcRKS3_.exit

if.then.i:                                        ; preds = %entry
  call void @_ZSt19__throw_logic_errorPKc(ptr noundef nonnull @.str.33) #21
  unreachable

_ZNSt7__cxx1112basic_stringIcSt11char_traitsIcESaIcEEC2IS3_EEPKcRKS3_.exit: ; preds = %entry
  %map_ = getelementptr inbounds i8, ptr %this, i64 48
  %call.i.i = call noundef i64 @strlen(ptr noundef nonnull dereferenceable(1) %key) #20
  %add.ptr.i = getelementptr inbounds i8, ptr %key, i64 %call.i.i
  call void @_ZNSt7__cxx1112basic_stringIcSt11char_traitsIcESaIcEE12_M_constructIPKcEEvT_S8_St20forward_iterator_tag(ptr noundef nonnull align 8 dereferenceable(32) %ref.tmp, ptr noundef nonnull %key, ptr noundef nonnull %add.ptr.i)
  %call.i1 = call ptr @_ZNKSt10_HashtableINSt7__cxx1112basic_stringIcSt11char_traitsIcESaIcEEESt4pairIKS5_S5_ESaIS8_ENSt8__detail10_Select1stESt8equal_toIS5_ESt4hashIS5_ENSA_18_Mod_range_hashingENSA_20_Default_ranged_hashENSA_20_Prime_rehash_policyENSA_17_Hashtable_traitsILb1ELb0ELb1EEEE4findERS7_(ptr noundef nonnull align 8 dereferenceable(56) %map_, ptr noundef nonnull align 8 dereferenceable(32) %ref.tmp)
  call void @_ZNSt7__cxx1112basic_stringIcSt11char_traitsIcESaIcEED1Ev(ptr noundef nonnull align 8 dereferenceable(32) %ref.tmp) #20
  call void @_ZNSaIcED1Ev(ptr noundef nonnull align 1 dereferenceable(1) %ref.tmp2) #20
  %cmp.i2 = icmp eq ptr %call.i1, null
  br i1 %cmp.i2, label %cond.true, label %cond.false

cond.true:                                        ; preds = %_ZNSt7__cxx1112basic_stringIcSt11char_traitsIcESaIcEEC2IS3_EEPKcRKS3_.exit
  store i8 0, ptr %agg.result, align 8, !alias.scope !29
  %value_.i.i = getelementptr inbounds i8, ptr %agg.result, i64 8
  call void @_ZNSt7__cxx1112basic_stringIcSt11char_traitsIcESaIcEEC1Ev(ptr noundef nonnull align 8 dereferenceable(32) %value_.i.i) #20
  br label %cond.end

cond.false:                                       ; preds = %_ZNSt7__cxx1112basic_stringIcSt11char_traitsIcESaIcEEC2IS3_EEPKcRKS3_.exit
  %second = getelementptr inbounds i8, ptr %call.i1, i64 40
  store i8 1, ptr %agg.result, align 8, !alias.scope !32
  %value_.i.i4 = getelementptr inbounds i8, ptr %agg.result, i64 8
  call void @_ZNSt7__cxx1112basic_stringIcSt11char_traitsIcESaIcEEC1ERKS4_(ptr noundef nonnull align 8 dereferenceable(32) %value_.i.i4, ptr noundef nonnull align 8 dereferenceable(32) %second) #20
  br label %cond.end

cond.end:                                         ; preds = %cond.false, %cond.true
  call void @uv_mutex_unlock(ptr noundef nonnull %mutex_) #20
  ret void
}